target datalayout = "e-m:e-p270:32:32-p271:32:32-p272:64:64-i64:64-i128:128-f80:128-n8:16:32:64-S128"
target triple = "x86_64-pc-linux-gnu"

%struct.RBTree = type { ptr, i64, ptr, ptr, ptr, ptr, ptr }
%struct.RBTNode = type { i8, ptr, ptr, ptr }

@sentinel = internal global { i8, [7 x i8], ptr, ptr, ptr } { i8 0, [7 x i8] zeroinitializer, ptr @sentinel, ptr @sentinel, ptr null }, align 8

; Function Attrs: nounwind uwtable
define dso_local ptr @rbt_leftmost(ptr noundef %0) #0 {
  %2 = alloca ptr, align 8
  %3 = alloca ptr, align 8
  %4 = alloca ptr, align 8
  %5 = alloca ptr, align 8
  %6 = alloca i32, align 4
  store ptr %0, ptr %3, align 8
  call void @llvm.lifetime.start.p0(i64 8, ptr %4) #6
  %7 = load ptr, ptr %3, align 8
  %8 = getelementptr inbounds nuw %struct.RBTree, ptr %7, i32 0, i32 0
  %9 = load ptr, ptr %8, align 8
  store ptr %9, ptr %4, align 8
  call void @llvm.lifetime.start.p0(i64 8, ptr %5) #6
  %10 = load ptr, ptr %3, align 8
  %11 = getelementptr inbounds nuw %struct.RBTree, ptr %10, i32 0, i32 0
  %12 = load ptr, ptr %11, align 8
  store ptr %12, ptr %5, align 8
  br label %13

13:                                               ; preds = %16, %1
  %14 = load ptr, ptr %4, align 8
  %15 = icmp ne ptr %14, @sentinel
  br i1 %15, label %16, label %21

16:                                               ; preds = %13
  %17 = load ptr, ptr %4, align 8
  store ptr %17, ptr %5, align 8
  %18 = load ptr, ptr %4, align 8
  %19 = getelementptr inbounds nuw %struct.RBTNode, ptr %18, i32 0, i32 1
  %20 = load ptr, ptr %19, align 8
  store ptr %20, ptr %4, align 8
  br label %13, !llvm.loop !10

21:                                               ; preds = %13
  %22 = load ptr, ptr %5, align 8
  %23 = icmp ne ptr %22, @sentinel
  br i1 %23, label %24, label %26

24:                                               ; preds = %21
  %25 = load ptr, ptr %5, align 8
  store ptr %25, ptr %2, align 8
  store i32 1, ptr %6, align 4
  br label %27

26:                                               ; preds = %21
  store ptr null, ptr %2, align 8
  store i32 1, ptr %6, align 4
  br label %27

27:                                               ; preds = %26, %24
  call void @llvm.lifetime.end.p0(i64 8, ptr %5) #6
  call void @llvm.lifetime.end.p0(i64 8, ptr %4) #6
  %28 = load ptr, ptr %2, align 8
  ret ptr %28
}