; Function Attrs: nofree norecurse nosync nounwind memory(read, inaccessiblemem: none) uwtable
define dso_local ptr @rbt_leftmost(ptr noundef readonly captures(none) %0) local_unnamed_addr #2 {
  %2 = load ptr, ptr %0, align 8
  %.not11 = icmp eq ptr %2, @sentinel
  br i1 %.not11, label %._crit_edge, label %.lr.ph

.lr.ph:                                           ; preds = %1, %.lr.ph
  %.0812 = phi ptr [ %4, %.lr.ph ], [ %2, %1 ]
  %3 = getelementptr inbounds nuw i8, ptr %.0812, i64 8
  %4 = load ptr, ptr %3, align 8
  %.not = icmp eq ptr %4, @sentinel
  br i1 %.not, label %._crit_edge, label %.lr.ph, !llvm.loop !6

._crit_edge:                                      ; preds = %.lr.ph, %1
  %.0.lcssa = phi ptr [ @sentinel, %1 ], [ %.0812, %.lr.ph ]
  %.not10 = icmp eq ptr %.0.lcssa, @sentinel
  %..0 = select i1 %.not10, ptr null, ptr %.0.lcssa
  ret ptr %..0
}